target datalayout = "e-m:e-p270:32:32-p271:32:32-p272:64:64-i64:64-i128:128-f80:128-n8:16:32:64-S128"
target triple = "x86_64-pc-linux-gnu"

%struct.RMD160_CTX = type { [5 x i32], [2 x i32], [64 x i8], i32 }

; Function Attrs: alwaysinline nounwind
define internal ptr @memcpy.inline(ptr noalias nonnull %0, ptr noalias nonnull %1, i64 %2) #2 {
  %4 = alloca ptr, align 8
  %5 = alloca ptr, align 8
  %6 = alloca i64, align 8
  store ptr %0, ptr %4, align 8, !tbaa !6
  store ptr %1, ptr %5, align 8, !tbaa !6
  store i64 %2, ptr %6, align 8, !tbaa !18
  %7 = load ptr, ptr %4, align 8, !tbaa !6
  %8 = load ptr, ptr %5, align 8, !tbaa !6
  %9 = load i64, ptr %6, align 8, !tbaa !18
  %10 = load ptr, ptr %4, align 8, !tbaa !6
  %11 = call i64 @llvm.objectsize.i64.p0(ptr %10, i1 false, i1 true, i1 false)
  %12 = call ptr @__memcpy_chk(ptr noundef %7, ptr noundef %8, i64 noundef %9, i64 noundef %11) #5
  ret ptr %12
}

; Function Attrs: alwaysinline nounwind
define internal ptr @memset.inline(ptr nonnull %0, i32 %1, i64 %2) #2 {
  %4 = alloca ptr, align 8
  %5 = alloca i32, align 4
  %6 = alloca i64, align 8
  store ptr %0, ptr %4, align 8, !tbaa !6
  store i32 %1, ptr %5, align 4, !tbaa !10
  store i64 %2, ptr %6, align 8, !tbaa !18
  %7 = load ptr, ptr %4, align 8, !tbaa !6
  %8 = load i32, ptr %5, align 4, !tbaa !10
  %9 = load i64, ptr %6, align 8, !tbaa !18
  %10 = load ptr, ptr %4, align 8, !tbaa !6
  %11 = call i64 @llvm.objectsize.i64.p0(ptr %10, i1 false, i1 true, i1 false)
  %12 = call ptr @__memset_chk(ptr noundef %7, i32 noundef %8, i64 noundef %9, i64 noundef %11) #5
  ret ptr %12
}

; Function Attrs: nounwind sspstrong uwtable
define i32 @rb_Digest_RMD160_Finish(ptr noundef %0, ptr noundef %1) #0 {
  %3 = alloca ptr, align 8
  %4 = alloca ptr, align 8
  %5 = alloca i32, align 4
  %6 = alloca [16 x i32], align 16
  store ptr %0, ptr %3, align 8, !tbaa !6
  store ptr %1, ptr %4, align 8, !tbaa !16
  call void @llvm.lifetime.start.p0(i64 4, ptr %5) #5
  call void @llvm.lifetime.start.p0(i64 64, ptr %6) #5
  %7 = load ptr, ptr %3, align 8, !tbaa !6
  %8 = getelementptr inbounds nuw %struct.RMD160_CTX, ptr %7, i32 0, i32 2
  %9 = load ptr, ptr %3, align 8, !tbaa !6
  %10 = getelementptr inbounds nuw %struct.RMD160_CTX, ptr %9, i32 0, i32 3
  %11 = load i32, ptr %10, align 4, !tbaa !12
  %12 = zext i32 %11 to i64
  %13 = getelementptr inbounds nuw [64 x i8], ptr %8, i64 0, i64 %12
  store i8 -128, ptr %13, align 1, !tbaa !22
  %14 = load ptr, ptr %3, align 8, !tbaa !6
  %15 = getelementptr inbounds nuw %struct.RMD160_CTX, ptr %14, i32 0, i32 2
  %16 = getelementptr inbounds [64 x i8], ptr %15, i64 0, i64 0
  %17 = load ptr, ptr %3, align 8, !tbaa !6
  %18 = getelementptr inbounds nuw %struct.RMD160_CTX, ptr %17, i32 0, i32 3
  %19 = load i32, ptr %18, align 4, !tbaa !12
  %20 = zext i32 %19 to i64
  %21 = getelementptr inbounds nuw i8, ptr %16, i64 %20
  %22 = getelementptr inbounds i8, ptr %21, i64 1
  %23 = load ptr, ptr %3, align 8, !tbaa !6
  %24 = getelementptr inbounds nuw %struct.RMD160_CTX, ptr %23, i32 0, i32 3
  %25 = load i32, ptr %24, align 4, !tbaa !12
  %26 = sub i32 63, %25
  %27 = zext i32 %26 to i64
  %28 = call ptr @memset.inline(ptr noundef %22, i32 noundef 0, i64 noundef %27) #5
  %29 = getelementptr inbounds [16 x i32], ptr %6, i64 0, i64 0
  %30 = load ptr, ptr %3, align 8, !tbaa !6
  %31 = getelementptr inbounds nuw %struct.RMD160_CTX, ptr %30, i32 0, i32 2
  %32 = getelementptr inbounds [64 x i8], ptr %31, i64 0, i64 0
  %33 = call ptr @memcpy.inline(ptr noundef %29, ptr noundef %32, i64 noundef 64) #5
  %34 = load ptr, ptr %3, align 8, !tbaa !6
  %35 = getelementptr inbounds nuw %struct.RMD160_CTX, ptr %34, i32 0, i32 3
  %36 = load i32, ptr %35, align 4, !tbaa !12
  %37 = icmp ugt i32 %36, 55
  br i1 %37, label %38, label %45

38:                                               ; preds = %2
  %39 = load ptr, ptr %3, align 8, !tbaa !6
  %40 = getelementptr inbounds nuw %struct.RMD160_CTX, ptr %39, i32 0, i32 0
  %41 = getelementptr inbounds [5 x i32], ptr %40, i64 0, i64 0
  %42 = getelementptr inbounds [16 x i32], ptr %6, i64 0, i64 0
  call void @rb_Digest_RMD160_Transform(ptr noundef %41, ptr noundef %42)
  %43 = getelementptr inbounds [16 x i32], ptr %6, i64 0, i64 0
  %44 = call ptr @memset.inline(ptr noundef %43, i32 noundef 0, i64 noundef 64) #5
  br label %45

45:                                               ; preds = %38, %2
  %46 = load ptr, ptr %3, align 8, !tbaa !6
  %47 = getelementptr inbounds nuw %struct.RMD160_CTX, ptr %46, i32 0, i32 1
  %48 = getelementptr inbounds [2 x i32], ptr %47, i64 0, i64 0
  %49 = load i32, ptr %48, align 4, !tbaa !10
  %50 = shl i32 %49, 3
  %51 = getelementptr inbounds [16 x i32], ptr %6, i64 0, i64 14
  store i32 %50, ptr %51, align 8, !tbaa !10
  %52 = load ptr, ptr %3, align 8, !tbaa !6
  %53 = getelementptr inbounds nuw %struct.RMD160_CTX, ptr %52, i32 0, i32 1
  %54 = getelementptr inbounds [2 x i32], ptr %53, i64 0, i64 0
  %55 = load i32, ptr %54, align 4, !tbaa !10
  %56 = lshr i32 %55, 29
  %57 = load ptr, ptr %3, align 8, !tbaa !6
  %58 = getelementptr inbounds nuw %struct.RMD160_CTX, ptr %57, i32 0, i32 1
  %59 = getelementptr inbounds [2 x i32], ptr %58, i64 0, i64 1
  %60 = load i32, ptr %59, align 4, !tbaa !10
  %61 = shl i32 %60, 3
  %62 = or i32 %56, %61
  %63 = getelementptr inbounds [16 x i32], ptr %6, i64 0, i64 15
  store i32 %62, ptr %63, align 4, !tbaa !10
  %64 = load ptr, ptr %3, align 8, !tbaa !6
  %65 = getelementptr inbounds nuw %struct.RMD160_CTX, ptr %64, i32 0, i32 0
  %66 = getelementptr inbounds [5 x i32], ptr %65, i64 0, i64 0
  %67 = getelementptr inbounds [16 x i32], ptr %6, i64 0, i64 0
  call void @rb_Digest_RMD160_Transform(ptr noundef %66, ptr noundef %67)
  %68 = load ptr, ptr %4, align 8, !tbaa !16
  %69 = icmp ne ptr %68, null
  br i1 %69, label %70, label %133

70:                                               ; preds = %45
  store i32 0, ptr %5, align 4, !tbaa !10
  br label %71

71:                                               ; preds = %129, %70
  %72 = load i32, ptr %5, align 4, !tbaa !10
  %73 = icmp ult i32 %72, 20
  br i1 %73, label %74, label %132

74:                                               ; preds = %71
  %75 = load ptr, ptr %3, align 8, !tbaa !6
  %76 = getelementptr inbounds nuw %struct.RMD160_CTX, ptr %75, i32 0, i32 0
  %77 = load i32, ptr %5, align 4, !tbaa !10
  %78 = lshr i32 %77, 2
  %79 = zext i32 %78 to i64
  %80 = getelementptr inbounds nuw [5 x i32], ptr %76, i64 0, i64 %79
  %81 = load i32, ptr %80, align 4, !tbaa !10
  %82 = trunc i32 %81 to i8
  %83 = load ptr, ptr %4, align 8, !tbaa !16
  %84 = load i32, ptr %5, align 4, !tbaa !10
  %85 = zext i32 %84 to i64
  %86 = getelementptr inbounds nuw i8, ptr %83, i64 %85
  store i8 %82, ptr %86, align 1, !tbaa !22
  %87 = load ptr, ptr %3, align 8, !tbaa !6
  %88 = getelementptr inbounds nuw %struct.RMD160_CTX, ptr %87, i32 0, i32 0
  %89 = load i32, ptr %5, align 4, !tbaa !10
  %90 = lshr i32 %89, 2
  %91 = zext i32 %90 to i64
  %92 = getelementptr inbounds nuw [5 x i32], ptr %88, i64 0, i64 %91
  %93 = load i32, ptr %92, align 4, !tbaa !10
  %94 = lshr i32 %93, 8
  %95 = trunc i32 %94 to i8
  %96 = load ptr, ptr %4, align 8, !tbaa !16
  %97 = load i32, ptr %5, align 4, !tbaa !10
  %98 = add i32 %97, 1
  %99 = zext i32 %98 to i64
  %100 = getelementptr inbounds nuw i8, ptr %96, i64 %99
  store i8 %95, ptr %100, align 1, !tbaa !22
  %101 = load ptr, ptr %3, align 8, !tbaa !6
  %102 = getelementptr inbounds nuw %struct.RMD160_CTX, ptr %101, i32 0, i32 0
  %103 = load i32, ptr %5, align 4, !tbaa !10
  %104 = lshr i32 %103, 2
  %105 = zext i32 %104 to i64
  %106 = getelementptr inbounds nuw [5 x i32], ptr %102, i64 0, i64 %105
  %107 = load i32, ptr %106, align 4, !tbaa !10
  %108 = lshr i32 %107, 16
  %109 = trunc i32 %108 to i8
  %110 = load ptr, ptr %4, align 8, !tbaa !16
  %111 = load i32, ptr %5, align 4, !tbaa !10
  %112 = add i32 %111, 2
  %113 = zext i32 %112 to i64
  %114 = getelementptr inbounds nuw i8, ptr %110, i64 %113
  store i8 %109, ptr %114, align 1, !tbaa !22
  %115 = load ptr, ptr %3, align 8, !tbaa !6
  %116 = getelementptr inbounds nuw %struct.RMD160_CTX, ptr %115, i32 0, i32 0
  %117 = load i32, ptr %5, align 4, !tbaa !10
  %118 = lshr i32 %117, 2
  %119 = zext i32 %118 to i64
  %120 = getelementptr inbounds nuw [5 x i32], ptr %116, i64 0, i64 %119
  %121 = load i32, ptr %120, align 4, !tbaa !10
  %122 = lshr i32 %121, 24
  %123 = trunc i32 %122 to i8
  %124 = load ptr, ptr %4, align 8, !tbaa !16
  %125 = load i32, ptr %5, align 4, !tbaa !10
  %126 = add i32 %125, 3
  %127 = zext i32 %126 to i64
  %128 = getelementptr inbounds nuw i8, ptr %124, i64 %127
  store i8 %123, ptr %128, align 1, !tbaa !22
  br label %129

129:                                              ; preds = %74
  %130 = load i32, ptr %5, align 4, !tbaa !10
  %131 = add i32 %130, 4
  store i32 %131, ptr %5, align 4, !tbaa !10
  br label %71, !llvm.loop !23

132:                                              ; preds = %71
  br label %133

133:                                              ; preds = %132, %45
  call void @llvm.lifetime.end.p0(i64 64, ptr %6) #5
  call void @llvm.lifetime.end.p0(i64 4, ptr %5) #5
  ret i32 1
}