; Function Attrs: nofree nounwind sspstrong memory(argmem: readwrite) uwtable
define noundef i32 @rb_Digest_RMD160_Finish(ptr noundef %0, ptr noundef writeonly captures(address_is_null) %1) local_unnamed_addr #4 {
  %3 = alloca [16 x i32], align 16
  call void @llvm.lifetime.start.p0(i64 64, ptr nonnull %3) #8
  %4 = getelementptr inbounds nuw i8, ptr %0, i64 28
  %5 = getelementptr inbounds nuw i8, ptr %0, i64 92
  %6 = load i32, ptr %5, align 4, !tbaa !10
  %7 = zext i32 %6 to i64
  %8 = getelementptr inbounds nuw [64 x i8], ptr %4, i64 0, i64 %7
  store i8 -128, ptr %8, align 1, !tbaa !14
  %9 = load i32, ptr %5, align 4, !tbaa !10
  %10 = zext i32 %9 to i64
  %11 = getelementptr inbounds nuw i8, ptr %4, i64 %10
  %12 = getelementptr inbounds nuw i8, ptr %11, i64 1
  %13 = sub i32 63, %9
  %14 = zext i32 %13 to i64
  tail call void @llvm.memset.p0.i64(ptr noundef nonnull align 1 %12, i8 noundef 0, i64 noundef range(i64 0, 4294967296) %14, i1 noundef false) #8
  call void @llvm.memcpy.p0.p0.i64(ptr noundef nonnull align 16 dereferenceable(64) %3, ptr noundef nonnull align 1 dereferenceable(64) %4, i64 noundef 64, i1 noundef false) #8
  %15 = load i32, ptr %5, align 4, !tbaa !10
  %16 = icmp ugt i32 %15, 55
  br i1 %16, label %17, label %18

17:                                               ; preds = %2
  call void @rb_Digest_RMD160_Transform(ptr noundef nonnull %0, ptr noundef nonnull %3)
  call void @llvm.memset.p0.i64(ptr noundef nonnull align 16 dereferenceable(64) %3, i8 noundef 0, i64 noundef 64, i1 noundef false) #8
  br label %18

18:                                               ; preds = %17, %2
  %19 = getelementptr inbounds nuw i8, ptr %0, i64 20
  %20 = load i32, ptr %19, align 4, !tbaa !6
  %21 = shl i32 %20, 3
  %22 = getelementptr inbounds nuw i8, ptr %3, i64 56
  store i32 %21, ptr %22, align 8, !tbaa !6
  %23 = getelementptr inbounds nuw i8, ptr %0, i64 24
  %24 = load i32, ptr %23, align 4, !tbaa !6
  %25 = tail call i32 @llvm.fshl.i32(i32 %24, i32 %20, i32 3)
  %26 = getelementptr inbounds nuw i8, ptr %3, i64 60
  store i32 %25, ptr %26, align 4, !tbaa !6
  call void @rb_Digest_RMD160_Transform(ptr noundef nonnull %0, ptr noundef nonnull %3)
  %.not = icmp eq ptr %1, null
  br i1 %.not, label %.loopexit, label %.preheader

.preheader:                                       ; preds = %18, %.preheader
  %indvars.iv = phi i64 [ %indvars.iv.next, %.preheader ], [ 0, %18 ]
  %27 = lshr exact i64 %indvars.iv, 2
  %28 = getelementptr inbounds nuw [5 x i32], ptr %0, i64 0, i64 %27
  %29 = load i32, ptr %28, align 4, !tbaa !6
  %30 = trunc i32 %29 to i8
  %31 = getelementptr inbounds nuw i8, ptr %1, i64 %indvars.iv
  store i8 %30, ptr %31, align 1, !tbaa !14
  %32 = load i32, ptr %28, align 4, !tbaa !6
  %33 = lshr i32 %32, 8
  %34 = trunc i32 %33 to i8
  %35 = or disjoint i64 %indvars.iv, 1
  %36 = getelementptr inbounds nuw i8, ptr %1, i64 %35
  store i8 %34, ptr %36, align 1, !tbaa !14
  %37 = load i32, ptr %28, align 4, !tbaa !6
  %38 = lshr i32 %37, 16
  %39 = trunc i32 %38 to i8
  %40 = or disjoint i64 %indvars.iv, 2
  %41 = getelementptr inbounds nuw i8, ptr %1, i64 %40
  store i8 %39, ptr %41, align 1, !tbaa !14
  %42 = load i32, ptr %28, align 4, !tbaa !6
  %43 = lshr i32 %42, 24
  %44 = trunc nuw i32 %43 to i8
  %45 = or disjoint i64 %indvars.iv, 3
  %46 = getelementptr inbounds nuw i8, ptr %1, i64 %45
  store i8 %44, ptr %46, align 1, !tbaa !14
  %indvars.iv.next = add nuw nsw i64 %indvars.iv, 4
  %47 = icmp samesign ult i64 %indvars.iv, 16
  br i1 %47, label %.preheader, label %.loopexit, !llvm.loop !15

.loopexit:                                        ; preds = %.preheader, %18
  call void @llvm.lifetime.end.p0(i64 64, ptr nonnull %3) #8
  ret i32 1
}